target datalayout = "e-m:e-p270:32:32-p271:32:32-p272:64:64-i64:64-i128:128-f80:128-n8:16:32:64-S128"
target triple = "x86_64-pc-linux-gnu"

%struct.pg_prng_state = type { i64, i64 }
%struct.FmgrInfo = type { ptr, i32, i16, i8, i8, i8, ptr, ptr, ptr }
%struct.ArrayType = type { i32, i32, i32, i32 }
%struct.TypeCacheEntry = type { i32, i32, i16, i8, i8, i8, i8, i32, i32, i32, i32, i32, i32, i32, i32, i32, i32, i32, i32, i32, i32, %struct.FmgrInfo, %struct.FmgrInfo, %struct.FmgrInfo, %struct.FmgrInfo, ptr, i64, ptr, i32, i32, %struct.FmgrInfo, %struct.FmgrInfo, %struct.FmgrInfo, ptr, i32, i32, ptr, i32, ptr, ptr }

@pg_global_prng_state = external global %struct.pg_prng_state, align 8

; Function Attrs: nounwind uwtable
define internal ptr @array_shuffle_n(ptr noundef %0, i32 noundef %1, i1 noundef zeroext %2, i32 noundef %3, ptr noundef %4) #0 {
  %6 = alloca ptr, align 8
  %7 = alloca ptr, align 8
  %8 = alloca i32, align 4
  %9 = alloca i8, align 1
  %10 = alloca i32, align 4
  %11 = alloca ptr, align 8
  %12 = alloca ptr, align 8
  %13 = alloca i32, align 4
  %14 = alloca ptr, align 8
  %15 = alloca ptr, align 8
  %16 = alloca i32, align 4
  %17 = alloca i32, align 4
  %18 = alloca [6 x i32], align 16
  %19 = alloca [6 x i32], align 16
  %20 = alloca i16, align 2
  %21 = alloca i8, align 1
  %22 = alloca i8, align 1
  %23 = alloca ptr, align 8
  %24 = alloca ptr, align 8
  %25 = alloca ptr, align 8
  %26 = alloca ptr, align 8
  %27 = alloca i32, align 4
  %28 = alloca i32, align 4
  %29 = alloca i32, align 4
  %30 = alloca ptr, align 8
  %31 = alloca ptr, align 8
  %32 = alloca i32, align 4
  %33 = alloca i64, align 8
  %34 = alloca i8, align 1
  store ptr %0, ptr %7, align 8
  store i32 %1, ptr %8, align 4
  %35 = zext i1 %2 to i8
  store i8 %35, ptr %9, align 1
  store i32 %3, ptr %10, align 4
  store ptr %4, ptr %11, align 8
  call void @llvm.lifetime.start.p0(i64 8, ptr %12) #7
  call void @llvm.lifetime.start.p0(i64 4, ptr %13) #7
  call void @llvm.lifetime.start.p0(i64 8, ptr %14) #7
  call void @llvm.lifetime.start.p0(i64 8, ptr %15) #7
  call void @llvm.lifetime.start.p0(i64 4, ptr %16) #7
  call void @llvm.lifetime.start.p0(i64 4, ptr %17) #7
  call void @llvm.lifetime.start.p0(i64 24, ptr %18) #7
  call void @llvm.lifetime.start.p0(i64 24, ptr %19) #7
  call void @llvm.lifetime.start.p0(i64 2, ptr %20) #7
  call void @llvm.lifetime.start.p0(i64 1, ptr %21) #7
  call void @llvm.lifetime.start.p0(i64 1, ptr %22) #7
  call void @llvm.lifetime.start.p0(i64 8, ptr %23) #7
  call void @llvm.lifetime.start.p0(i64 8, ptr %24) #7
  call void @llvm.lifetime.start.p0(i64 8, ptr %25) #7
  call void @llvm.lifetime.start.p0(i64 8, ptr %26) #7
  %36 = load ptr, ptr %7, align 8
  %37 = getelementptr inbounds nuw %struct.ArrayType, ptr %36, i32 0, i32 1
  %38 = load i32, ptr %37, align 4
  store i32 %38, ptr %13, align 4
  %39 = load ptr, ptr %7, align 8
  %40 = getelementptr inbounds nuw i8, ptr %39, i64 16
  store ptr %40, ptr %14, align 8
  %41 = load ptr, ptr %7, align 8
  %42 = getelementptr inbounds nuw i8, ptr %41, i64 16
  %43 = load ptr, ptr %7, align 8
  %44 = getelementptr inbounds nuw %struct.ArrayType, ptr %43, i32 0, i32 1
  %45 = load i32, ptr %44, align 4
  %46 = sext i32 %45 to i64
  %47 = mul i64 4, %46
  %48 = getelementptr inbounds nuw i8, ptr %42, i64 %47
  store ptr %48, ptr %15, align 8
  %49 = load ptr, ptr %11, align 8
  %50 = getelementptr inbounds nuw %struct.TypeCacheEntry, ptr %49, i32 0, i32 2
  %51 = load i16, ptr %50, align 8
  store i16 %51, ptr %20, align 2
  %52 = load ptr, ptr %11, align 8
  %53 = getelementptr inbounds nuw %struct.TypeCacheEntry, ptr %52, i32 0, i32 3
  %54 = load i8, ptr %53, align 2, !range !4, !noundef !5
  %55 = trunc i8 %54 to i1
  %56 = zext i1 %55 to i8
  store i8 %56, ptr %21, align 1
  %57 = load ptr, ptr %11, align 8
  %58 = getelementptr inbounds nuw %struct.TypeCacheEntry, ptr %57, i32 0, i32 4
  %59 = load i8, ptr %58, align 1
  store i8 %59, ptr %22, align 1
  %60 = load i32, ptr %13, align 4
  %61 = icmp slt i32 %60, 1
  br i1 %61, label %70, label %62

62:                                               ; preds = %5
  %63 = load ptr, ptr %14, align 8
  %64 = getelementptr inbounds i32, ptr %63, i64 0
  %65 = load i32, ptr %64, align 4
  %66 = icmp slt i32 %65, 1
  br i1 %66, label %70, label %67

67:                                               ; preds = %62
  %68 = load i32, ptr %8, align 4
  %69 = icmp slt i32 %68, 1
  br i1 %69, label %70, label %73

70:                                               ; preds = %67, %62, %5
  %71 = load i32, ptr %10, align 4
  %72 = call ptr @construct_empty_array(i32 noundef %71)
  store ptr %72, ptr %6, align 8
  store i32 1, ptr %27, align 4
  br label %182

73:                                               ; preds = %67
  %74 = load ptr, ptr %7, align 8
  %75 = load i32, ptr %10, align 4
  %76 = load i16, ptr %20, align 2
  %77 = sext i16 %76 to i32
  %78 = load i8, ptr %21, align 1, !range !4, !noundef !5
  %79 = trunc i8 %78 to i1
  %80 = load i8, ptr %22, align 1
  call void @deconstruct_array(ptr noundef %74, i32 noundef %75, i32 noundef %77, i1 noundef zeroext %79, i8 noundef signext %80, ptr noundef %23, ptr noundef %25, ptr noundef %16)
  %81 = load ptr, ptr %14, align 8
  %82 = getelementptr inbounds i32, ptr %81, i64 0
  %83 = load i32, ptr %82, align 4
  store i32 %83, ptr %17, align 4
  %84 = load i32, ptr %17, align 4
  %85 = load i32, ptr %16, align 4
  %86 = sdiv i32 %85, %84
  store i32 %86, ptr %16, align 4
  %87 = load ptr, ptr %23, align 8
  store ptr %87, ptr %24, align 8
  %88 = load ptr, ptr %25, align 8
  store ptr %88, ptr %26, align 8
  call void @llvm.lifetime.start.p0(i64 4, ptr %28) #7
  store i32 0, ptr %28, align 4
  br label %89

89:                                               ; preds = %146, %73
  %90 = load i32, ptr %28, align 4
  %91 = load i32, ptr %8, align 4
  %92 = icmp slt i32 %90, %91
  br i1 %92, label %94, label %93

93:                                               ; preds = %89
  store i32 2, ptr %27, align 4
  call void @llvm.lifetime.end.p0(i64 4, ptr %28) #7
  br label %149

94:                                               ; preds = %89
  call void @llvm.lifetime.start.p0(i64 4, ptr %29) #7
  %95 = load i32, ptr %28, align 4
  %96 = sext i32 %95 to i64
  %97 = load i32, ptr %17, align 4
  %98 = sub i32 %97, 1
  %99 = sext i32 %98 to i64
  %100 = call i64 @pg_prng_uint64_range(ptr noundef @pg_global_prng_state, i64 noundef %96, i64 noundef %99)
  %101 = trunc i64 %100 to i32
  %102 = load i32, ptr %16, align 4
  %103 = mul i32 %101, %102
  store i32 %103, ptr %29, align 4
  call void @llvm.lifetime.start.p0(i64 8, ptr %30) #7
  %104 = load ptr, ptr %23, align 8
  %105 = load i32, ptr %29, align 4
  %106 = sext i32 %105 to i64
  %107 = getelementptr inbounds i64, ptr %104, i64 %106
  store ptr %107, ptr %30, align 8
  call void @llvm.lifetime.start.p0(i64 8, ptr %31) #7
  %108 = load ptr, ptr %25, align 8
  %109 = load i32, ptr %29, align 4
  %110 = sext i32 %109 to i64
  %111 = getelementptr inbounds i8, ptr %108, i64 %110
  store ptr %111, ptr %31, align 8
  call void @llvm.lifetime.start.p0(i64 4, ptr %32) #7
  store i32 0, ptr %32, align 4
  br label %112

112:                                              ; preds = %142, %94
  %113 = load i32, ptr %32, align 4
  %114 = load i32, ptr %16, align 4
  %115 = icmp slt i32 %113, %114
  br i1 %115, label %117, label %116

116:                                              ; preds = %112
  store i32 5, ptr %27, align 4
  call void @llvm.lifetime.end.p0(i64 4, ptr %32) #7
  br label %145

117:                                              ; preds = %112
  call void @llvm.lifetime.start.p0(i64 8, ptr %33) #7
  %118 = load ptr, ptr %24, align 8
  %119 = load i64, ptr %118, align 8
  store i64 %119, ptr %33, align 8
  call void @llvm.lifetime.start.p0(i64 1, ptr %34) #7
  %120 = load ptr, ptr %26, align 8
  %121 = load i8, ptr %120, align 1, !range !4, !noundef !5
  %122 = trunc i8 %121 to i1
  %123 = zext i1 %122 to i8
  store i8 %123, ptr %34, align 1
  %124 = load ptr, ptr %30, align 8
  %125 = load i64, ptr %124, align 8
  %126 = load ptr, ptr %24, align 8
  %127 = getelementptr inbounds nuw i64, ptr %126, i32 1
  store ptr %127, ptr %24, align 8
  store i64 %125, ptr %126, align 8
  %128 = load ptr, ptr %31, align 8
  %129 = load i8, ptr %128, align 1, !range !4, !noundef !5
  %130 = trunc i8 %129 to i1
  %131 = load ptr, ptr %26, align 8
  %132 = getelementptr inbounds nuw i8, ptr %131, i32 1
  store ptr %132, ptr %26, align 8
  %133 = zext i1 %130 to i8
  store i8 %133, ptr %131, align 1
  %134 = load i64, ptr %33, align 8
  %135 = load ptr, ptr %30, align 8
  %136 = getelementptr inbounds nuw i64, ptr %135, i32 1
  store ptr %136, ptr %30, align 8
  store i64 %134, ptr %135, align 8
  %137 = load i8, ptr %34, align 1, !range !4, !noundef !5
  %138 = trunc i8 %137 to i1
  %139 = load ptr, ptr %31, align 8
  %140 = getelementptr inbounds nuw i8, ptr %139, i32 1
  store ptr %140, ptr %31, align 8
  %141 = zext i1 %138 to i8
  store i8 %141, ptr %139, align 1
  call void @llvm.lifetime.end.p0(i64 1, ptr %34) #7
  call void @llvm.lifetime.end.p0(i64 8, ptr %33) #7
  br label %142

142:                                              ; preds = %117
  %143 = load i32, ptr %32, align 4
  %144 = add i32 %143, 1
  store i32 %144, ptr %32, align 4
  br label %112, !llvm.loop !18

145:                                              ; preds = %116
  call void @llvm.lifetime.end.p0(i64 8, ptr %31) #7
  call void @llvm.lifetime.end.p0(i64 8, ptr %30) #7
  call void @llvm.lifetime.end.p0(i64 4, ptr %29) #7
  br label %146

146:                                              ; preds = %145
  %147 = load i32, ptr %28, align 4
  %148 = add i32 %147, 1
  store i32 %148, ptr %28, align 4
  br label %89, !llvm.loop !19

149:                                              ; preds = %93
  %150 = getelementptr inbounds [6 x i32], ptr %18, i64 0, i64 0
  %151 = load ptr, ptr %14, align 8
  %152 = load i32, ptr %13, align 4
  %153 = sext i32 %152 to i64
  %154 = mul i64 %153, 4
  call void @llvm.memcpy.p0.p0.i64(ptr align 16 %150, ptr align 4 %151, i64 %154, i1 false)
  %155 = getelementptr inbounds [6 x i32], ptr %19, i64 0, i64 0
  %156 = load ptr, ptr %15, align 8
  %157 = load i32, ptr %13, align 4
  %158 = sext i32 %157 to i64
  %159 = mul i64 %158, 4
  call void @llvm.memcpy.p0.p0.i64(ptr align 16 %155, ptr align 4 %156, i64 %159, i1 false)
  %160 = load i32, ptr %8, align 4
  %161 = getelementptr inbounds [6 x i32], ptr %18, i64 0, i64 0
  store i32 %160, ptr %161, align 16
  %162 = load i8, ptr %9, align 1, !range !4, !noundef !5
  %163 = trunc i8 %162 to i1
  br i1 %163, label %166, label %164

164:                                              ; preds = %149
  %165 = getelementptr inbounds [6 x i32], ptr %19, i64 0, i64 0
  store i32 1, ptr %165, align 16
  br label %166

166:                                              ; preds = %164, %149
  %167 = load ptr, ptr %23, align 8
  %168 = load ptr, ptr %25, align 8
  %169 = load i32, ptr %13, align 4
  %170 = getelementptr inbounds [6 x i32], ptr %18, i64 0, i64 0
  %171 = getelementptr inbounds [6 x i32], ptr %19, i64 0, i64 0
  %172 = load i32, ptr %10, align 4
  %173 = load i16, ptr %20, align 2
  %174 = sext i16 %173 to i32
  %175 = load i8, ptr %21, align 1, !range !4, !noundef !5
  %176 = trunc i8 %175 to i1
  %177 = load i8, ptr %22, align 1
  %178 = call ptr @construct_md_array(ptr noundef %167, ptr noundef %168, i32 noundef %169, ptr noundef %170, ptr noundef %171, i32 noundef %172, i32 noundef %174, i1 noundef zeroext %176, i8 noundef signext %177)
  store ptr %178, ptr %12, align 8
  %179 = load ptr, ptr %23, align 8
  call void @pfree(ptr noundef %179)
  %180 = load ptr, ptr %25, align 8
  call void @pfree(ptr noundef %180)
  %181 = load ptr, ptr %12, align 8
  store ptr %181, ptr %6, align 8
  store i32 1, ptr %27, align 4
  br label %182

182:                                              ; preds = %166, %70
  call void @llvm.lifetime.end.p0(i64 8, ptr %26) #7
  call void @llvm.lifetime.end.p0(i64 8, ptr %25) #7
  call void @llvm.lifetime.end.p0(i64 8, ptr %24) #7
  call void @llvm.lifetime.end.p0(i64 8, ptr %23) #7
  call void @llvm.lifetime.end.p0(i64 1, ptr %22) #7
  call void @llvm.lifetime.end.p0(i64 1, ptr %21) #7
  call void @llvm.lifetime.end.p0(i64 2, ptr %20) #7
  call void @llvm.lifetime.end.p0(i64 24, ptr %19) #7
  call void @llvm.lifetime.end.p0(i64 24, ptr %18) #7
  call void @llvm.lifetime.end.p0(i64 4, ptr %17) #7
  call void @llvm.lifetime.end.p0(i64 4, ptr %16) #7
  call void @llvm.lifetime.end.p0(i64 8, ptr %15) #7
  call void @llvm.lifetime.end.p0(i64 8, ptr %14) #7
  call void @llvm.lifetime.end.p0(i64 4, ptr %13) #7
  call void @llvm.lifetime.end.p0(i64 8, ptr %12) #7
  %183 = load ptr, ptr %6, align 8
  ret ptr %183
}