; Function Attrs: nounwind uwtable
define internal fastcc ptr @array_shuffle_n(ptr noundef %0, i32 noundef %1, i1 noundef zeroext %2, i32 noundef %3, ptr noundef readonly captures(none) %4) unnamed_addr #0 {
  %6 = alloca i32, align 4
  %7 = alloca [6 x i32], align 16
  %8 = alloca [6 x i32], align 16
  %9 = alloca ptr, align 8
  %10 = alloca ptr, align 8
  call void @llvm.lifetime.start.p0(i64 4, ptr nonnull %6) #10
  call void @llvm.lifetime.start.p0(i64 24, ptr nonnull %7) #10
  call void @llvm.lifetime.start.p0(i64 24, ptr nonnull %8) #10
  call void @llvm.lifetime.start.p0(i64 8, ptr nonnull %9) #10
  call void @llvm.lifetime.start.p0(i64 8, ptr nonnull %10) #10
  %11 = getelementptr inbounds nuw i8, ptr %0, i64 4
  %12 = load i32, ptr %11, align 4
  %13 = getelementptr inbounds nuw i8, ptr %0, i64 16
  %14 = sext i32 %12 to i64
  %15 = shl nsw i64 %14, 2
  %16 = getelementptr inbounds nuw i8, ptr %13, i64 %15
  %17 = getelementptr inbounds nuw i8, ptr %4, i64 8
  %18 = load i16, ptr %17, align 8
  %19 = getelementptr inbounds nuw i8, ptr %4, i64 10
  %20 = load i8, ptr %19, align 2, !range !4, !noundef !5
  %21 = trunc nuw i8 %20 to i1
  %22 = getelementptr inbounds nuw i8, ptr %4, i64 11
  %23 = load i8, ptr %22, align 1
  %24 = icmp slt i32 %12, 1
  br i1 %24, label %29, label %25

25:                                               ; preds = %5
  %26 = load i32, ptr %13, align 4
  %27 = icmp slt i32 %26, 1
  %28 = icmp slt i32 %1, 1
  %or.cond = or i1 %28, %27
  br i1 %or.cond, label %29, label %31

29:                                               ; preds = %25, %5
  %30 = tail call ptr @construct_empty_array(i32 noundef %3) #10
  br label %70

31:                                               ; preds = %25
  %32 = sext i16 %18 to i32
  call void @deconstruct_array(ptr noundef nonnull %0, i32 noundef %3, i32 noundef %32, i1 noundef zeroext %21, i8 noundef signext %23, ptr noundef nonnull %9, ptr noundef nonnull %10, ptr noundef nonnull %6) #10
  %33 = load i32, ptr %13, align 4
  %34 = load i32, ptr %6, align 4
  %35 = sdiv i32 %34, %33
  store i32 %35, ptr %6, align 4
  %36 = load ptr, ptr %9, align 8
  %37 = load ptr, ptr %10, align 8
  %38 = add i32 %33, -1
  %39 = sext i32 %38 to i64
  %wide.trip.count = zext nneg i32 %1 to i64
  br label %41

40:                                               ; preds = %._crit_edge
  call void @llvm.memcpy.p0.p0.i64(ptr nonnull align 16 %7, ptr nonnull align 4 %13, i64 %15, i1 false)
  call void @llvm.memcpy.p0.p0.i64(ptr nonnull align 16 %8, ptr nonnull align 4 %16, i64 %15, i1 false)
  store i32 %1, ptr %7, align 16
  br i1 %2, label %64, label %63

41:                                               ; preds = %31, %._crit_edge
  %indvars.iv = phi i64 [ 0, %31 ], [ %indvars.iv.next, %._crit_edge ]
  %.05067 = phi ptr [ %36, %31 ], [ %.1.lcssa, %._crit_edge ]
  %.05466 = phi ptr [ %37, %31 ], [ %.155.lcssa, %._crit_edge ]
  %42 = call i64 @pg_prng_uint64_range(ptr noundef nonnull @pg_global_prng_state, i64 noundef %indvars.iv, i64 noundef %39) #10
  %43 = load i32, ptr %6, align 4
  %44 = icmp sgt i32 %43, 0
  br i1 %44, label %.lr.ph.preheader, label %._crit_edge

.lr.ph.preheader:                                 ; preds = %41
  %45 = load ptr, ptr %10, align 8
  %46 = trunc i64 %42 to i32
  %47 = mul i32 %43, %46
  %48 = sext i32 %47 to i64
  %49 = getelementptr inbounds i8, ptr %45, i64 %48
  %50 = load ptr, ptr %9, align 8
  %51 = getelementptr inbounds i64, ptr %50, i64 %48
  br label %.lr.ph

._crit_edge:                                      ; preds = %.lr.ph, %41
  %.155.lcssa = phi ptr [ %.05466, %41 ], [ %57, %.lr.ph ]
  %.1.lcssa = phi ptr [ %.05067, %41 ], [ %55, %.lr.ph ]
  %indvars.iv.next = add nuw nsw i64 %indvars.iv, 1
  %exitcond.not = icmp eq i64 %indvars.iv.next, %wide.trip.count
  br i1 %exitcond.not, label %40, label %41, !llvm.loop !57

.lr.ph:                                           ; preds = %.lr.ph.preheader, %.lr.ph
  %.163 = phi ptr [ %55, %.lr.ph ], [ %.05067, %.lr.ph.preheader ]
  %.05162 = phi i32 [ %60, %.lr.ph ], [ 0, %.lr.ph.preheader ]
  %.05261 = phi ptr [ %59, %.lr.ph ], [ %49, %.lr.ph.preheader ]
  %.05360 = phi ptr [ %58, %.lr.ph ], [ %51, %.lr.ph.preheader ]
  %.15559 = phi ptr [ %57, %.lr.ph ], [ %.05466, %.lr.ph.preheader ]
  %52 = load i64, ptr %.163, align 8
  %53 = load i8, ptr %.15559, align 1, !range !4, !noundef !5
  %54 = load i64, ptr %.05360, align 8
  %55 = getelementptr inbounds nuw i8, ptr %.163, i64 8
  store i64 %54, ptr %.163, align 8
  %56 = load i8, ptr %.05261, align 1, !range !4, !noundef !5
  %57 = getelementptr inbounds nuw i8, ptr %.15559, i64 1
  store i8 %56, ptr %.15559, align 1
  %58 = getelementptr inbounds nuw i8, ptr %.05360, i64 8
  store i64 %52, ptr %.05360, align 8
  %59 = getelementptr inbounds nuw i8, ptr %.05261, i64 1
  store i8 %53, ptr %.05261, align 1
  %60 = add nuw nsw i32 %.05162, 1
  %61 = load i32, ptr %6, align 4
  %62 = icmp slt i32 %60, %61
  br i1 %62, label %.lr.ph, label %._crit_edge, !llvm.loop !58

63:                                               ; preds = %40
  store i32 1, ptr %8, align 16
  br label %64

64:                                               ; preds = %63, %40
  %65 = load ptr, ptr %9, align 8
  %66 = load ptr, ptr %10, align 8
  %67 = call ptr @construct_md_array(ptr noundef %65, ptr noundef %66, i32 noundef %12, ptr noundef nonnull %7, ptr noundef nonnull %8, i32 noundef %3, i32 noundef %32, i1 noundef zeroext %21, i8 noundef signext %23) #10
  %68 = load ptr, ptr %9, align 8
  call void @pfree(ptr noundef %68) #10
  %69 = load ptr, ptr %10, align 8
  call void @pfree(ptr noundef %69) #10
  br label %70

70:                                               ; preds = %64, %29
  %.0 = phi ptr [ %30, %29 ], [ %67, %64 ]
  call void @llvm.lifetime.end.p0(i64 8, ptr nonnull %10) #10
  call void @llvm.lifetime.end.p0(i64 8, ptr nonnull %9) #10
  call void @llvm.lifetime.end.p0(i64 24, ptr nonnull %8) #10
  call void @llvm.lifetime.end.p0(i64 24, ptr nonnull %7) #10
  call void @llvm.lifetime.end.p0(i64 4, ptr nonnull %6) #10
  ret ptr %.0
}